target datalayout = "e-m:e-p270:32:32-p271:32:32-p272:64:64-i64:64-i128:128-f80:128-n8:16:32:64-S128"
target triple = "x86_64-pc-linux-gnu"

%struct.H5L_class_t = type { i32, i32, ptr, ptr, ptr, ptr, ptr, ptr, ptr }
%struct.H5O_link_t = type { i32, i8, i64, i32, ptr, %union.anon }
%union.anon = type { %struct.H5O_link_ud_t }
%struct.H5O_link_ud_t = type { ptr, i64 }
%struct.H5O_link_soft_t = type { ptr }

@.str = private unnamed_addr constant [100 x i8] c"generated/home/dtcxzyw/WorkSpace/Projects/compilers/llvm-opt-benchmark/bench/hdf5/hdf5/src/H5Lint.c\00", align 1
@H5E_LINK_g = external global i64, align 8
@H5E_NOTREGISTERED_g = external global i64, align 8
@H5L_table_g = internal global ptr null, align 8
@H5L_table_used_g = internal global i64 0, align 8
@__func__.H5L_find_class = private unnamed_addr constant [15 x i8] c"H5L_find_class\00", align 1
@.str.2 = private unnamed_addr constant [26 x i8] c"unable to find link class\00", align 1
@H5E_BADTYPE_g = external global i64, align 8
@H5E_CALLBACK_g = external global i64, align 8
@__func__.H5L__get_val_real = private unnamed_addr constant [18 x i8] c"H5L__get_val_real\00", align 1
@.str.49 = private unnamed_addr constant [32 x i8] c"query callback returned failure\00", align 1
@.str.50 = private unnamed_addr constant [46 x i8] c"object is not a symbolic or user-defined link\00", align 1

; Function Attrs: nounwind uwtable
define internal i32 @H5L__find_class_idx(i32 noundef %0) #0 {
  %2 = alloca i32, align 4
  %3 = alloca i64, align 8
  %4 = alloca i32, align 4
  store i32 %0, ptr %2, align 4
  store i32 -1, ptr %4, align 4
  store i64 0, ptr %3, align 8
  br label %5

5:                                                ; preds = %23, %1
  %6 = load i64, ptr %3, align 8
  %7 = load i64, ptr @H5L_table_used_g, align 8
  %8 = icmp ult i64 %6, %7
  br i1 %8, label %9, label %26

9:                                                ; preds = %5
  %10 = load ptr, ptr @H5L_table_g, align 8
  %11 = load i64, ptr %3, align 8
  %12 = getelementptr inbounds %struct.H5L_class_t, ptr %10, i64 %11
  %13 = getelementptr inbounds %struct.H5L_class_t, ptr %12, i32 0, i32 1
  %14 = load i32, ptr %13, align 4
  %15 = load i32, ptr %2, align 4
  %16 = icmp eq i32 %14, %15
  br i1 %16, label %17, label %22

17:                                               ; preds = %9
  br label %18

18:                                               ; preds = %17
  %19 = load i64, ptr %3, align 8
  %20 = trunc i64 %19 to i32
  store i32 %20, ptr %4, align 4
  br label %27

21:                                               ; No predecessors!
  br label %22

22:                                               ; preds = %21, %9
  br label %23

23:                                               ; preds = %22
  %24 = load i64, ptr %3, align 8
  %25 = add i64 %24, 1
  store i64 %25, ptr %3, align 8
  br label %5

26:                                               ; preds = %5
  br label %27

27:                                               ; preds = %26, %18
  %28 = load i32, ptr %4, align 4
  ret i32 %28
}

; Function Attrs: nounwind uwtable
define ptr @H5L_find_class(i32 noundef %0) #0 {
  %2 = alloca i32, align 4
  %3 = alloca i32, align 4
  %4 = alloca ptr, align 8
  %5 = alloca i8, align 1
  store i32 %0, ptr %2, align 4
  store ptr null, ptr %4, align 8
  store i8 0, ptr %5, align 1
  %6 = load i32, ptr %2, align 4
  %7 = call i32 @H5L__find_class_idx(i32 noundef %6)
  store i32 %7, ptr %3, align 4
  %8 = icmp slt i32 %7, 0
  br i1 %8, label %9, label %24

9:                                                ; preds = %1
  br label %10

10:                                               ; preds = %9
  br label %11

11:                                               ; preds = %10
  br label %12

12:                                               ; preds = %11
  %13 = load i64, ptr @H5E_LINK_g, align 8
  %14 = load i64, ptr @H5E_NOTREGISTERED_g, align 8
  %15 = call i32 (ptr, ptr, i32, i64, i64, ptr, ...) @H5E_printf_stack(ptr noundef @.str, ptr noundef @__func__.H5L_find_class, i32 noundef 291, i64 noundef %13, i64 noundef %14, ptr noundef @.str.2)
  br label %16

16:                                               ; preds = %12
  store i8 1, ptr %5, align 1
  %17 = load i8, ptr %5, align 1
  %18 = trunc i8 %17 to i1
  %19 = zext i1 %18 to i8
  store i8 %19, ptr %5, align 1
  br label %20

20:                                               ; preds = %16
  br label %21

21:                                               ; preds = %20
  store ptr null, ptr %4, align 8
  br label %29

22:                                               ; No predecessors!
  br label %23

23:                                               ; preds = %22
  br label %24

24:                                               ; preds = %23, %1
  %25 = load ptr, ptr @H5L_table_g, align 8
  %26 = load i32, ptr %3, align 4
  %27 = sext i32 %26 to i64
  %28 = getelementptr inbounds %struct.H5L_class_t, ptr %25, i64 %27
  store ptr %28, ptr %4, align 8
  br label %29

29:                                               ; preds = %24, %21
  %30 = load ptr, ptr %4, align 8
  ret ptr %30
}

; Function Attrs: nounwind uwtable
define internal i32 @H5L__get_val_real(ptr noundef %0, ptr noundef %1, i64 noundef %2) #0 {
  %4 = alloca ptr, align 8
  %5 = alloca ptr, align 8
  %6 = alloca i64, align 8
  %7 = alloca i32, align 4
  %8 = alloca i8, align 1
  %9 = alloca ptr, align 8
  store ptr %0, ptr %4, align 8
  store ptr %1, ptr %5, align 8
  store i64 %2, ptr %6, align 8
  store i32 0, ptr %7, align 4
  store i8 0, ptr %8, align 1
  %10 = load ptr, ptr %4, align 8
  %11 = getelementptr inbounds %struct.H5O_link_t, ptr %10, i32 0, i32 0
  %12 = load i32, ptr %11, align 8
  %13 = icmp eq i32 1, %12
  br i1 %13, label %14, label %42

14:                                               ; preds = %3
  %15 = load i64, ptr %6, align 8
  %16 = icmp ugt i64 %15, 0
  br i1 %16, label %17, label %41

17:                                               ; preds = %14
  %18 = load ptr, ptr %5, align 8
  %19 = icmp ne ptr %18, null
  br i1 %19, label %20, label %41

20:                                               ; preds = %17
  %21 = load ptr, ptr %5, align 8
  %22 = load ptr, ptr %4, align 8
  %23 = getelementptr inbounds %struct.H5O_link_t, ptr %22, i32 0, i32 5
  %24 = getelementptr inbounds %struct.H5O_link_soft_t, ptr %23, i32 0, i32 0
  %25 = load ptr, ptr %24, align 8
  %26 = load i64, ptr %6, align 8
  %27 = call ptr @strncpy(ptr noundef %21, ptr noundef %25, i64 noundef %26) #9
  %28 = load ptr, ptr %4, align 8
  %29 = getelementptr inbounds %struct.H5O_link_t, ptr %28, i32 0, i32 5
  %30 = getelementptr inbounds %struct.H5O_link_soft_t, ptr %29, i32 0, i32 0
  %31 = load ptr, ptr %30, align 8
  %32 = call i64 @strlen(ptr noundef %31) #8
  %33 = load i64, ptr %6, align 8
  %34 = icmp uge i64 %32, %33
  br i1 %34, label %35, label %40

35:                                               ; preds = %20
  %36 = load ptr, ptr %5, align 8
  %37 = load i64, ptr %6, align 8
  %38 = sub i64 %37, 1
  %39 = getelementptr inbounds i8, ptr %36, i64 %38
  store i8 0, ptr %39, align 1
  br label %40

40:                                               ; preds = %35, %20
  br label %41

41:                                               ; preds = %40, %17, %14
  br label %121

42:                                               ; preds = %3
  %43 = load ptr, ptr %4, align 8
  %44 = getelementptr inbounds %struct.H5O_link_t, ptr %43, i32 0, i32 0
  %45 = load i32, ptr %44, align 8
  %46 = icmp sge i32 %45, 64
  br i1 %46, label %47, label %105

47:                                               ; preds = %42
  %48 = load ptr, ptr %4, align 8
  %49 = getelementptr inbounds %struct.H5O_link_t, ptr %48, i32 0, i32 0
  %50 = load i32, ptr %49, align 8
  %51 = call ptr @H5L_find_class(i32 noundef %50)
  store ptr %51, ptr %9, align 8
  %52 = load ptr, ptr %9, align 8
  %53 = icmp ne ptr %52, null
  br i1 %53, label %54, label %94

54:                                               ; preds = %47
  %55 = load ptr, ptr %9, align 8
  %56 = getelementptr inbounds %struct.H5L_class_t, ptr %55, i32 0, i32 8
  %57 = load ptr, ptr %56, align 8
  %58 = icmp ne ptr %57, null
  br i1 %58, label %59, label %94

59:                                               ; preds = %54
  %60 = load ptr, ptr %9, align 8
  %61 = getelementptr inbounds %struct.H5L_class_t, ptr %60, i32 0, i32 8
  %62 = load ptr, ptr %61, align 8
  %63 = load ptr, ptr %4, align 8
  %64 = getelementptr inbounds %struct.H5O_link_t, ptr %63, i32 0, i32 4
  %65 = load ptr, ptr %64, align 8
  %66 = load ptr, ptr %4, align 8
  %67 = getelementptr inbounds %struct.H5O_link_t, ptr %66, i32 0, i32 5
  %68 = getelementptr inbounds %struct.H5O_link_ud_t, ptr %67, i32 0, i32 0
  %69 = load ptr, ptr %68, align 8
  %70 = load ptr, ptr %4, align 8
  %71 = getelementptr inbounds %struct.H5O_link_t, ptr %70, i32 0, i32 5
  %72 = getelementptr inbounds %struct.H5O_link_ud_t, ptr %71, i32 0, i32 1
  %73 = load i64, ptr %72, align 8
  %74 = load ptr, ptr %5, align 8
  %75 = load i64, ptr %6, align 8
  %76 = call i64 %62(ptr noundef %65, ptr noundef %69, i64 noundef %73, ptr noundef %74, i64 noundef %75)
  %77 = icmp slt i64 %76, 0
  br i1 %77, label %78, label %93

78:                                               ; preds = %59
  br label %79

79:                                               ; preds = %78
  br label %80

80:                                               ; preds = %79
  br label %81

81:                                               ; preds = %80
  %82 = load i64, ptr @H5E_LINK_g, align 8
  %83 = load i64, ptr @H5E_CALLBACK_g, align 8
  %84 = call i32 (ptr, ptr, i32, i64, i64, ptr, ...) @H5E_printf_stack(ptr noundef @.str, ptr noundef @__func__.H5L__get_val_real, i32 noundef 948, i64 noundef %82, i64 noundef %83, ptr noundef @.str.49)
  br label %85

85:                                               ; preds = %81
  store i8 1, ptr %8, align 1
  %86 = load i8, ptr %8, align 1
  %87 = trunc i8 %86 to i1
  %88 = zext i1 %87 to i8
  store i8 %88, ptr %8, align 1
  br label %89

89:                                               ; preds = %85
  br label %90

90:                                               ; preds = %89
  store i32 -1, ptr %7, align 4
  br label %122

91:                                               ; No predecessors!
  br label %92

92:                                               ; preds = %91
  br label %93

93:                                               ; preds = %92, %59
  br label %104

94:                                               ; preds = %54, %47
  %95 = load ptr, ptr %5, align 8
  %96 = icmp ne ptr %95, null
  br i1 %96, label %97, label %103

97:                                               ; preds = %94
  %98 = load i64, ptr %6, align 8
  %99 = icmp ugt i64 %98, 0
  br i1 %99, label %100, label %103

100:                                              ; preds = %97
  %101 = load ptr, ptr %5, align 8
  %102 = getelementptr inbounds i8, ptr %101, i64 0
  store i8 0, ptr %102, align 1
  br label %103

103:                                              ; preds = %100, %97, %94
  br label %104

104:                                              ; preds = %103, %93
  br label %120

105:                                              ; preds = %42
  br label %106

106:                                              ; preds = %105
  br label %107

107:                                              ; preds = %106
  br label %108

108:                                              ; preds = %107
  %109 = load i64, ptr @H5E_LINK_g, align 8
  %110 = load i64, ptr @H5E_BADTYPE_g, align 8
  %111 = call i32 (ptr, ptr, i32, i64, i64, ptr, ...) @H5E_printf_stack(ptr noundef @.str, ptr noundef @__func__.H5L__get_val_real, i32 noundef 954, i64 noundef %109, i64 noundef %110, ptr noundef @.str.50)
  br label %112

112:                                              ; preds = %108
  store i8 1, ptr %8, align 1
  %113 = load i8, ptr %8, align 1
  %114 = trunc i8 %113 to i1
  %115 = zext i1 %114 to i8
  store i8 %115, ptr %8, align 1
  br label %116

116:                                              ; preds = %112
  br label %117

117:                                              ; preds = %116
  store i32 -1, ptr %7, align 4
  br label %122

118:                                              ; No predecessors!
  br label %119

119:                                              ; preds = %118
  br label %120

120:                                              ; preds = %119, %104
  br label %121

121:                                              ; preds = %120, %41
  br label %122

122:                                              ; preds = %121, %117, %90
  %123 = load i32, ptr %7, align 4
  ret i32 %123
}