; Function Attrs: nounwind uwtable
define internal fastcc range(i32 -1, 1) i32 @H5L__get_val_real(ptr nocapture noundef readonly %0, ptr noundef %1, i64 noundef %2) unnamed_addr #0 {
  %4 = load i32, ptr %0, align 8
  %5 = icmp eq i32 %4, 1
  br i1 %5, label %6, label %18

6:                                                ; preds = %3
  %7 = icmp ne i64 %2, 0
  %8 = icmp ne ptr %1, null
  %or.cond = and i1 %8, %7
  br i1 %or.cond, label %9, label %57

9:                                                ; preds = %6
  %10 = getelementptr inbounds i8, ptr %0, i64 32
  %11 = load ptr, ptr %10, align 8
  %12 = tail call ptr @strncpy(ptr noundef nonnull %1, ptr noundef %11, i64 noundef %2) #10
  %13 = load ptr, ptr %10, align 8
  %14 = tail call i64 @strlen(ptr noundef nonnull dereferenceable(1) %13) #12
  %.not34 = icmp ult i64 %14, %2
  br i1 %.not34, label %57, label %15

15:                                               ; preds = %9
  %16 = getelementptr i8, ptr %1, i64 %2
  %17 = getelementptr i8, ptr %16, i64 -1
  store i8 0, ptr %17, align 1
  br label %57

18:                                               ; preds = %3
  %19 = icmp sgt i32 %4, 63
  br i1 %19, label %20, label %53

20:                                               ; preds = %18
  %21 = load i64, ptr @H5L_table_used_g, align 8
  %.not.i.i = icmp eq i64 %21, 0
  br i1 %.not.i.i, label %H5L_find_class.exit.thread, label %.lr.ph.i.i

.lr.ph.i.i:                                       ; preds = %20
  %22 = load ptr, ptr @H5L_table_g, align 8
  br label %23

23:                                               ; preds = %27, %.lr.ph.i.i
  %.068.i.i = phi i64 [ 0, %.lr.ph.i.i ], [ %28, %27 ]
  %24 = getelementptr inbounds %struct.H5L_class_t, ptr %22, i64 %.068.i.i, i32 1
  %25 = load i32, ptr %24, align 4
  %26 = icmp eq i32 %25, %4
  br i1 %26, label %H5L__find_class_idx.exit.i, label %27

27:                                               ; preds = %23
  %28 = add nuw i64 %.068.i.i, 1
  %exitcond.not.i.i = icmp eq i64 %28, %21
  br i1 %exitcond.not.i.i, label %H5L_find_class.exit.thread, label %23

H5L__find_class_idx.exit.i:                       ; preds = %23
  %29 = and i64 %.068.i.i, 2147483648
  %.not.i = icmp eq i64 %29, 0
  br i1 %.not.i, label %H5L_find_class.exit, label %H5L_find_class.exit.thread

H5L_find_class.exit.thread:                       ; preds = %27, %20, %H5L__find_class_idx.exit.i
  %30 = load i64, ptr @H5E_LINK_g, align 8
  %31 = load i64, ptr @H5E_NOTREGISTERED_g, align 8
  %32 = tail call i32 (ptr, ptr, i32, i64, i64, ptr, ...) @H5E_printf_stack(ptr noundef nonnull @.str, ptr noundef nonnull @__func__.H5L_find_class, i32 noundef 291, i64 noundef %30, i64 noundef %31, ptr noundef nonnull @.str.2) #10
  br label %49

H5L_find_class.exit:                              ; preds = %H5L__find_class_idx.exit.i
  %33 = and i64 %.068.i.i, 2147483647
  %34 = getelementptr inbounds %struct.H5L_class_t, ptr %22, i64 %33, i32 8
  %35 = load ptr, ptr %34, align 8
  %.not33 = icmp eq ptr %35, null
  br i1 %.not33, label %49, label %36

36:                                               ; preds = %H5L_find_class.exit
  %37 = getelementptr inbounds i8, ptr %0, i64 24
  %38 = load ptr, ptr %37, align 8
  %39 = getelementptr inbounds i8, ptr %0, i64 32
  %40 = load ptr, ptr %39, align 8
  %41 = getelementptr inbounds i8, ptr %0, i64 40
  %42 = load i64, ptr %41, align 8
  %43 = tail call i64 %35(ptr noundef %38, ptr noundef %40, i64 noundef %42, ptr noundef %1, i64 noundef %2) #10
  %44 = icmp slt i64 %43, 0
  br i1 %44, label %45, label %57

45:                                               ; preds = %36
  %46 = load i64, ptr @H5E_LINK_g, align 8
  %47 = load i64, ptr @H5E_CALLBACK_g, align 8
  %48 = tail call i32 (ptr, ptr, i32, i64, i64, ptr, ...) @H5E_printf_stack(ptr noundef nonnull @.str, ptr noundef nonnull @__func__.H5L__get_val_real, i32 noundef 948, i64 noundef %46, i64 noundef %47, ptr noundef nonnull @.str.49) #10
  br label %57

49:                                               ; preds = %H5L_find_class.exit.thread, %H5L_find_class.exit
  %50 = icmp ne ptr %1, null
  %51 = icmp ne i64 %2, 0
  %or.cond3 = and i1 %50, %51
  br i1 %or.cond3, label %52, label %57

52:                                               ; preds = %49
  store i8 0, ptr %1, align 1
  br label %57

53:                                               ; preds = %18
  %54 = load i64, ptr @H5E_LINK_g, align 8
  %55 = load i64, ptr @H5E_BADTYPE_g, align 8
  %56 = tail call i32 (ptr, ptr, i32, i64, i64, ptr, ...) @H5E_printf_stack(ptr noundef nonnull @.str, ptr noundef nonnull @__func__.H5L__get_val_real, i32 noundef 954, i64 noundef %54, i64 noundef %55, ptr noundef nonnull @.str.50) #10
  br label %57

57:                                               ; preds = %9, %15, %6, %36, %52, %49, %53, %45
  %.0 = phi i32 [ 0, %15 ], [ 0, %9 ], [ 0, %6 ], [ -1, %45 ], [ 0, %36 ], [ 0, %52 ], [ 0, %49 ], [ -1, %53 ]
  ret i32 %.0
}